target datalayout = "e-m:e-p270:32:32-p271:32:32-p272:64:64-i64:64-i128:128-f80:128-n8:16:32:64-S128"
target triple = "x86_64-pc-linux-gnu"

%struct.ResampleContext = type { ptr, ptr, i32, i32, i32, i32, i32, i32, i32, i32, i32, i32, i32, i32, i32, double, double, i32, i32, i32, i32, %struct.anon }
%struct.anon = type { ptr, ptr, ptr }
%struct.AudioData = type { [64 x ptr], ptr, i32, i32, i32, i32, i32 }
%struct.SwrContext = type { ptr, i32, ptr, i32, i32, i32, %struct.AVChannelLayout, %struct.AVChannelLayout, %struct.AVChannelLayout, i32, i32, i32, float, float, float, float, float, i32, ptr, i32, %struct.AVChannelLayout, %struct.AVChannelLayout, %struct.AVChannelLayout, i32, i32, %struct.DitherContext, i32, i32, i32, i32, double, i32, double, double, i32, float, float, float, float, float, i64, i32, i32, i32, %struct.AudioData, %struct.AudioData, %struct.AudioData, %struct.AudioData, %struct.AudioData, %struct.AudioData, %struct.AudioData, %struct.AudioData, i32, i32, i32, i32, i64, i64, i32, double, ptr, ptr, ptr, ptr, ptr, [64 x [64 x double]], [64 x [64 x float]], ptr, ptr, ptr, ptr, [64 x [64 x i32]], [64 x [65 x i8]], ptr, ptr, ptr, ptr, ptr }
%struct.AVChannelLayout = type { i32, i32, %union.anon, ptr }
%union.anon = type { i64 }
%struct.DitherContext = type { i32, i32, float, float, i32, float, float, i32, [20 x float], [64 x [40 x float]], %struct.AudioData, %struct.AudioData, i32 }

; Function Attrs: nounwind uwtable
define internal i64 @get_delay(ptr noundef %0, i64 noundef %1) #0 {
  %3 = alloca ptr, align 8
  %4 = alloca i64, align 8
  %5 = alloca ptr, align 8
  %6 = alloca i64, align 8
  store ptr %0, ptr %3, align 8, !tbaa !57
  store i64 %1, ptr %4, align 8, !tbaa !46
  call void @llvm.lifetime.start.p0(i64 8, ptr %5) #8
  %7 = load ptr, ptr %3, align 8, !tbaa !57
  %8 = getelementptr inbounds nuw %struct.SwrContext, ptr %7, i32 0, i32 63
  %9 = load ptr, ptr %8, align 8, !tbaa !59
  store ptr %9, ptr %5, align 8, !tbaa !4
  call void @llvm.lifetime.start.p0(i64 8, ptr %6) #8
  %10 = load ptr, ptr %3, align 8, !tbaa !57
  %11 = getelementptr inbounds nuw %struct.SwrContext, ptr %10, i32 0, i32 53
  %12 = load i32, ptr %11, align 4, !tbaa !66
  %13 = load ptr, ptr %5, align 8, !tbaa !4
  %14 = getelementptr inbounds nuw %struct.ResampleContext, ptr %13, i32 0, i32 2
  %15 = load i32, ptr %14, align 8, !tbaa !20
  %16 = sub nsw i32 %15, 1
  %17 = sdiv i32 %16, 2
  %18 = sub nsw i32 %12, %17
  %19 = sext i32 %18 to i64
  store i64 %19, ptr %6, align 8, !tbaa !46
  %20 = load ptr, ptr %5, align 8, !tbaa !4
  %21 = getelementptr inbounds nuw %struct.ResampleContext, ptr %20, i32 0, i32 12
  %22 = load i32, ptr %21, align 8, !tbaa !13
  %23 = sext i32 %22 to i64
  %24 = load i64, ptr %6, align 8, !tbaa !46
  %25 = mul nsw i64 %24, %23
  store i64 %25, ptr %6, align 8, !tbaa !46
  %26 = load ptr, ptr %5, align 8, !tbaa !4
  %27 = getelementptr inbounds nuw %struct.ResampleContext, ptr %26, i32 0, i32 8
  %28 = load i32, ptr %27, align 8, !tbaa !37
  %29 = sext i32 %28 to i64
  %30 = load i64, ptr %6, align 8, !tbaa !46
  %31 = sub nsw i64 %30, %29
  store i64 %31, ptr %6, align 8, !tbaa !46
  %32 = load ptr, ptr %5, align 8, !tbaa !4
  %33 = getelementptr inbounds nuw %struct.ResampleContext, ptr %32, i32 0, i32 10
  %34 = load i32, ptr %33, align 8, !tbaa !31
  %35 = sext i32 %34 to i64
  %36 = load i64, ptr %6, align 8, !tbaa !46
  %37 = mul nsw i64 %36, %35
  store i64 %37, ptr %6, align 8, !tbaa !46
  %38 = load ptr, ptr %5, align 8, !tbaa !4
  %39 = getelementptr inbounds nuw %struct.ResampleContext, ptr %38, i32 0, i32 9
  %40 = load i32, ptr %39, align 4, !tbaa !38
  %41 = sext i32 %40 to i64
  %42 = load i64, ptr %6, align 8, !tbaa !46
  %43 = sub nsw i64 %42, %41
  store i64 %43, ptr %6, align 8, !tbaa !46
  %44 = load i64, ptr %6, align 8, !tbaa !46
  %45 = load i64, ptr %4, align 8, !tbaa !46
  %46 = load ptr, ptr %3, align 8, !tbaa !57
  %47 = getelementptr inbounds nuw %struct.SwrContext, ptr %46, i32 0, i32 9
  %48 = load i32, ptr %47, align 8, !tbaa !72
  %49 = sext i32 %48 to i64
  %50 = load ptr, ptr %5, align 8, !tbaa !4
  %51 = getelementptr inbounds nuw %struct.ResampleContext, ptr %50, i32 0, i32 10
  %52 = load i32, ptr %51, align 8, !tbaa !31
  %53 = sext i32 %52 to i64
  %54 = mul nsw i64 %49, %53
  %55 = load ptr, ptr %5, align 8, !tbaa !4
  %56 = getelementptr inbounds nuw %struct.ResampleContext, ptr %55, i32 0, i32 12
  %57 = load i32, ptr %56, align 8, !tbaa !13
  %58 = sext i32 %57 to i64
  %59 = mul nsw i64 %54, %58
  %60 = call i64 @av_rescale(i64 noundef %44, i64 noundef %45, i64 noundef %59) #10
  call void @llvm.lifetime.end.p0(i64 8, ptr %6) #8
  call void @llvm.lifetime.end.p0(i64 8, ptr %5) #8
  ret i64 %60
}