; Function Attrs: mustprogress nofree nosync nounwind willreturn memory(read, inaccessiblemem: none) uwtable
define internal i64 @get_delay(ptr noundef readonly captures(none) %0, i64 noundef %1) #1 {
  %3 = getelementptr inbounds nuw i8, ptr %0, i64 16216
  %4 = load ptr, ptr %3, align 8, !tbaa !45
  %5 = getelementptr inbounds nuw i8, ptr %0, i64 16148
  %6 = load i32, ptr %5, align 4, !tbaa !54
  %7 = getelementptr inbounds nuw i8, ptr %4, i64 16
  %8 = load i32, ptr %7, align 8, !tbaa !19
  %9 = add nsw i32 %8, -1
  %.neg = sdiv i32 %9, -2
  %10 = add i32 %.neg, %6
  %11 = sext i32 %10 to i64
  %12 = getelementptr inbounds nuw i8, ptr %4, i64 56
  %13 = load i32, ptr %12, align 8, !tbaa !11
  %14 = sext i32 %13 to i64
  %15 = mul nsw i64 %11, %14
  %16 = getelementptr inbounds nuw i8, ptr %4, i64 40
  %17 = load i32, ptr %16, align 8, !tbaa !36
  %18 = sext i32 %17 to i64
  %19 = sub nsw i64 %15, %18
  %20 = getelementptr inbounds nuw i8, ptr %4, i64 48
  %21 = load i32, ptr %20, align 8, !tbaa !30
  %22 = sext i32 %21 to i64
  %23 = mul nsw i64 %19, %22
  %24 = getelementptr inbounds nuw i8, ptr %4, i64 44
  %25 = load i32, ptr %24, align 4, !tbaa !37
  %26 = sext i32 %25 to i64
  %27 = sub nsw i64 %23, %26
  %28 = getelementptr inbounds nuw i8, ptr %0, i64 112
  %29 = load i32, ptr %28, align 8, !tbaa !61
  %30 = sext i32 %29 to i64
  %31 = mul nsw i64 %22, %14
  %32 = mul i64 %31, %30
  %33 = tail call i64 @av_rescale(i64 noundef %27, i64 noundef %1, i64 noundef %32) #11
  ret i64 %33
}